target datalayout = "e-m:e-p270:32:32-p271:32:32-p272:64:64-i64:64-i128:128-f80:128-n8:16:32:64-S128"
target triple = "x86_64-pc-linux-gnu"

%struct.H5O_copy_dtype_merge_list_t = type { ptr, ptr }

@H5_H5O_copy_dtype_merge_list_t_reg_free_list = global { i8, [3 x i8], i32, i32, [4 x i8], ptr, i64, ptr } { i8 0, [3 x i8] zeroinitializer, i32 0, i32 0, [4 x i8] zeroinitializer, ptr @.str.1, i64 16, ptr null }, align 8
@H5_libterm_g = external global i8, align 1
@.str.2 = private unnamed_addr constant [103 x i8] c"generated/home/dtcxzyw/WorkSpace/Projects/compilers/llvm-opt-benchmark/bench/hdf5/hdf5/src/H5Pocpypl.c\00", align 1
@H5P_init_g = external global i8, align 1
@H5E_PLIST_g = external global i64, align 8
@.str.15 = private unnamed_addr constant [25 x i8] c"memory allocation failed\00", align 1
@__func__.H5P__copy_merge_comm_dt_list = private unnamed_addr constant [29 x i8] c"H5P__copy_merge_comm_dt_list\00", align 1
@H5E_CANTALLOC_g = external global i64, align 8

; Function Attrs: nounwind uwtable
define internal ptr @H5P__free_merge_comm_dtype_list(ptr noundef %0) #0 {
  %2 = alloca ptr, align 8
  %3 = alloca ptr, align 8
  store ptr %0, ptr %2, align 8, !tbaa !22
  %4 = load i8, ptr @H5P_init_g, align 1, !tbaa !10, !range !12, !noundef !13
  %5 = trunc i8 %4 to i1
  br i1 %5, label %10, label %6

6:                                                ; preds = %1
  %7 = load i8, ptr @H5_libterm_g, align 1, !tbaa !10, !range !12, !noundef !13
  %8 = trunc i8 %7 to i1
  %9 = xor i1 %8, true
  br label %10

10:                                               ; preds = %6, %1
  %11 = phi i1 [ true, %1 ], [ %9, %6 ]
  %12 = xor i1 %11, true
  %13 = xor i1 %12, true
  %14 = zext i1 %13 to i32
  %15 = sext i32 %14 to i64
  %16 = call i64 @llvm.expect.i64(i64 %15, i64 1)
  %17 = icmp ne i64 %16, 0
  br i1 %17, label %18, label %34

18:                                               ; preds = %10
  br label %19

19:                                               ; preds = %22, %18
  %20 = load ptr, ptr %2, align 8, !tbaa !22
  %21 = icmp ne ptr %20, null
  br i1 %21, label %22, label %33

22:                                               ; preds = %19
  call void @llvm.lifetime.start.p0(i64 8, ptr %3) #7
  %23 = load ptr, ptr %2, align 8, !tbaa !22
  %24 = getelementptr inbounds nuw %struct.H5O_copy_dtype_merge_list_t, ptr %23, i32 0, i32 1
  %25 = load ptr, ptr %24, align 8, !tbaa !27
  store ptr %25, ptr %3, align 8, !tbaa !22
  %26 = load ptr, ptr %2, align 8, !tbaa !22
  %27 = getelementptr inbounds nuw %struct.H5O_copy_dtype_merge_list_t, ptr %26, i32 0, i32 0
  %28 = load ptr, ptr %27, align 8, !tbaa !25
  %29 = call ptr @H5MM_xfree(ptr noundef %28)
  %30 = load ptr, ptr %2, align 8, !tbaa !22
  %31 = call ptr @H5FL_reg_free(ptr noundef @H5_H5O_copy_dtype_merge_list_t_reg_free_list, ptr noundef %30)
  %32 = load ptr, ptr %3, align 8, !tbaa !22
  store ptr %32, ptr %2, align 8, !tbaa !22
  call void @llvm.lifetime.end.p0(i64 8, ptr %3) #7
  br label %19, !llvm.loop !28

33:                                               ; preds = %19
  br label %34

34:                                               ; preds = %33, %10
  ret ptr null
}

; Function Attrs: nounwind uwtable
define internal i32 @H5P__copy_merge_comm_dt_list(ptr noundef %0) #0 {
  %2 = alloca ptr, align 8
  %3 = alloca ptr, align 8
  %4 = alloca ptr, align 8
  %5 = alloca ptr, align 8
  %6 = alloca ptr, align 8
  %7 = alloca i32, align 4
  %8 = alloca i8, align 1
  store ptr %0, ptr %2, align 8, !tbaa !36
  call void @llvm.lifetime.start.p0(i64 8, ptr %3) #7
  call void @llvm.lifetime.start.p0(i64 8, ptr %4) #7
  store ptr null, ptr %4, align 8, !tbaa !22
  call void @llvm.lifetime.start.p0(i64 8, ptr %5) #7
  store ptr null, ptr %5, align 8, !tbaa !22
  call void @llvm.lifetime.start.p0(i64 8, ptr %6) #7
  store ptr null, ptr %6, align 8, !tbaa !22
  call void @llvm.lifetime.start.p0(i64 4, ptr %7) #7
  store i32 0, ptr %7, align 4, !tbaa !8
  call void @llvm.lifetime.start.p0(i64 1, ptr %8) #7
  store i8 0, ptr %8, align 1, !tbaa !10
  %9 = load i8, ptr @H5P_init_g, align 1, !tbaa !10, !range !12, !noundef !13
  %10 = trunc i8 %9 to i1
  br i1 %10, label %15, label %11

11:                                               ; preds = %1
  %12 = load i8, ptr @H5_libterm_g, align 1, !tbaa !10, !range !12, !noundef !13
  %13 = trunc i8 %12 to i1
  %14 = xor i1 %13, true
  br label %15

15:                                               ; preds = %11, %1
  %16 = phi i1 [ true, %1 ], [ %14, %11 ]
  %17 = xor i1 %16, true
  %18 = xor i1 %17, true
  %19 = zext i1 %18 to i32
  %20 = sext i32 %19 to i64
  %21 = call i64 @llvm.expect.i64(i64 %20, i64 1)
  %22 = icmp ne i64 %21, 0
  br i1 %22, label %23, label %115

23:                                               ; preds = %15
  %24 = load ptr, ptr %2, align 8, !tbaa !36
  %25 = load ptr, ptr %24, align 8, !tbaa !22
  store ptr %25, ptr %3, align 8, !tbaa !22
  br label %26

26:                                               ; preds = %89, %23
  %27 = load ptr, ptr %3, align 8, !tbaa !22
  %28 = icmp ne ptr %27, null
  br i1 %28, label %29, label %93

29:                                               ; preds = %26
  %30 = call noalias ptr @H5FL_reg_calloc(ptr noundef @H5_H5O_copy_dtype_merge_list_t_reg_free_list)
  store ptr %30, ptr %6, align 8, !tbaa !22
  %31 = icmp eq ptr null, %30
  br i1 %31, label %32, label %51

32:                                               ; preds = %29
  br label %33

33:                                               ; preds = %32
  br label %34

34:                                               ; preds = %33
  br label %35

35:                                               ; preds = %34
  %36 = load i64, ptr @H5E_PLIST_g, align 8, !tbaa !14
  %37 = load i64, ptr @H5E_CANTALLOC_g, align 8, !tbaa !14
  %38 = call i32 (ptr, ptr, i32, i64, i64, ptr, ...) @H5E_printf_stack(ptr noundef @.str.2, ptr noundef @__func__.H5P__copy_merge_comm_dt_list, i32 noundef 237, i64 noundef %36, i64 noundef %37, ptr noundef @.str.15)
  br label %39

39:                                               ; preds = %35
  br label %40

40:                                               ; preds = %39
  store i8 1, ptr %8, align 1, !tbaa !10
  %41 = load i8, ptr %8, align 1, !tbaa !10, !range !12, !noundef !13
  %42 = trunc i8 %41 to i1
  %43 = zext i1 %42 to i8
  store i8 %43, ptr %8, align 1, !tbaa !10
  br label %44

44:                                               ; preds = %40
  br label %45

45:                                               ; preds = %44
  br label %46

46:                                               ; preds = %45
  store i32 -1, ptr %7, align 4, !tbaa !8
  br label %96

47:                                               ; No predecessors!
  br label %48

48:                                               ; preds = %47
  br label %49

49:                                               ; preds = %48
  br label %50

50:                                               ; preds = %49
  br label %51

51:                                               ; preds = %50, %29
  %52 = load ptr, ptr %3, align 8, !tbaa !22
  %53 = getelementptr inbounds nuw %struct.H5O_copy_dtype_merge_list_t, ptr %52, i32 0, i32 0
  %54 = load ptr, ptr %53, align 8, !tbaa !25
  %55 = call noalias ptr @H5MM_strdup(ptr noundef %54)
  %56 = load ptr, ptr %6, align 8, !tbaa !22
  %57 = getelementptr inbounds nuw %struct.H5O_copy_dtype_merge_list_t, ptr %56, i32 0, i32 0
  store ptr %55, ptr %57, align 8, !tbaa !25
  %58 = icmp eq ptr null, %55
  br i1 %58, label %59, label %78

59:                                               ; preds = %51
  br label %60

60:                                               ; preds = %59
  br label %61

61:                                               ; preds = %60
  br label %62

62:                                               ; preds = %61
  %63 = load i64, ptr @H5E_PLIST_g, align 8, !tbaa !14
  %64 = load i64, ptr @H5E_CANTALLOC_g, align 8, !tbaa !14
  %65 = call i32 (ptr, ptr, i32, i64, i64, ptr, ...) @H5E_printf_stack(ptr noundef @.str.2, ptr noundef @__func__.H5P__copy_merge_comm_dt_list, i32 noundef 239, i64 noundef %63, i64 noundef %64, ptr noundef @.str.15)
  br label %66

66:                                               ; preds = %62
  br label %67

67:                                               ; preds = %66
  store i8 1, ptr %8, align 1, !tbaa !10
  %68 = load i8, ptr %8, align 1, !tbaa !10, !range !12, !noundef !13
  %69 = trunc i8 %68 to i1
  %70 = zext i1 %69 to i8
  store i8 %70, ptr %8, align 1, !tbaa !10
  br label %71

71:                                               ; preds = %67
  br label %72

72:                                               ; preds = %71
  br label %73

73:                                               ; preds = %72
  store i32 -1, ptr %7, align 4, !tbaa !8
  br label %96

74:                                               ; No predecessors!
  br label %75

75:                                               ; preds = %74
  br label %76

76:                                               ; preds = %75
  br label %77

77:                                               ; preds = %76
  br label %78

78:                                               ; preds = %77, %51
  %79 = load ptr, ptr %5, align 8, !tbaa !22
  %80 = icmp ne ptr %79, null
  br i1 %80, label %81, label %86

81:                                               ; preds = %78
  %82 = load ptr, ptr %6, align 8, !tbaa !22
  %83 = load ptr, ptr %5, align 8, !tbaa !22
  %84 = getelementptr inbounds nuw %struct.H5O_copy_dtype_merge_list_t, ptr %83, i32 0, i32 1
  store ptr %82, ptr %84, align 8, !tbaa !27
  %85 = load ptr, ptr %6, align 8, !tbaa !22
  store ptr %85, ptr %5, align 8, !tbaa !22
  br label %89

86:                                               ; preds = %78
  %87 = load ptr, ptr %6, align 8, !tbaa !22
  store ptr %87, ptr %4, align 8, !tbaa !22
  %88 = load ptr, ptr %6, align 8, !tbaa !22
  store ptr %88, ptr %5, align 8, !tbaa !22
  br label %89

89:                                               ; preds = %86, %81
  store ptr null, ptr %6, align 8, !tbaa !22
  %90 = load ptr, ptr %3, align 8, !tbaa !22
  %91 = getelementptr inbounds nuw %struct.H5O_copy_dtype_merge_list_t, ptr %90, i32 0, i32 1
  %92 = load ptr, ptr %91, align 8, !tbaa !27
  store ptr %92, ptr %3, align 8, !tbaa !22
  br label %26, !llvm.loop !43

93:                                               ; preds = %26
  %94 = load ptr, ptr %4, align 8, !tbaa !22
  %95 = load ptr, ptr %2, align 8, !tbaa !36
  store ptr %94, ptr %95, align 8, !tbaa !22
  br label %96

96:                                               ; preds = %93, %73, %46
  %97 = load i32, ptr %7, align 4, !tbaa !8
  %98 = icmp slt i32 %97, 0
  br i1 %98, label %99, label %114

99:                                               ; preds = %96
  %100 = load ptr, ptr %4, align 8, !tbaa !22
  %101 = call ptr @H5P__free_merge_comm_dtype_list(ptr noundef %100)
  store ptr %101, ptr %4, align 8, !tbaa !22
  %102 = load ptr, ptr %6, align 8, !tbaa !22
  %103 = icmp ne ptr %102, null
  br i1 %103, label %104, label %113

104:                                              ; preds = %99
  %105 = load ptr, ptr %6, align 8, !tbaa !22
  %106 = getelementptr inbounds nuw %struct.H5O_copy_dtype_merge_list_t, ptr %105, i32 0, i32 0
  %107 = load ptr, ptr %106, align 8, !tbaa !25
  %108 = call ptr @H5MM_xfree(ptr noundef %107)
  %109 = load ptr, ptr %6, align 8, !tbaa !22
  %110 = getelementptr inbounds nuw %struct.H5O_copy_dtype_merge_list_t, ptr %109, i32 0, i32 0
  store ptr %108, ptr %110, align 8, !tbaa !25
  %111 = load ptr, ptr %6, align 8, !tbaa !22
  %112 = call ptr @H5FL_reg_free(ptr noundef @H5_H5O_copy_dtype_merge_list_t_reg_free_list, ptr noundef %111)
  store ptr %112, ptr %6, align 8, !tbaa !22
  br label %113

113:                                              ; preds = %104, %99
  br label %114

114:                                              ; preds = %113, %96
  br label %115

115:                                              ; preds = %114, %15
  %116 = load i32, ptr %7, align 4, !tbaa !8
  call void @llvm.lifetime.end.p0(i64 1, ptr %8) #7
  call void @llvm.lifetime.end.p0(i64 4, ptr %7) #7
  call void @llvm.lifetime.end.p0(i64 8, ptr %6) #7
  call void @llvm.lifetime.end.p0(i64 8, ptr %5) #7
  call void @llvm.lifetime.end.p0(i64 8, ptr %4) #7
  call void @llvm.lifetime.end.p0(i64 8, ptr %3) #7
  ret i32 %116
}