; Function Attrs: nounwind uwtable
define internal fastcc range(i32 -1, 1) i32 @H5P__copy_merge_comm_dt_list(ptr noundef captures(none) %0) unnamed_addr #0 {
  %2 = load i8, ptr @H5P_init_g, align 1, !tbaa !3, !range !7, !noundef !8
  %3 = trunc nuw i8 %2 to i1
  %4 = load i8, ptr @H5_libterm_g, align 1, !range !7
  %5 = trunc nuw i8 %4 to i1
  %6 = xor i1 %5, true
  %7 = select i1 %3, i1 true, i1 %6
  br i1 %7, label %.preheader, label %39, !prof !9

.preheader:                                       ; preds = %1
  %.02737 = load ptr, ptr %0, align 8, !tbaa !18
  %.not.not38 = icmp eq ptr %.02737, null
  br i1 %.not.not38, label %._crit_edge, label %.lr.ph

.lr.ph:                                           ; preds = %.preheader, %17
  %.02741 = phi ptr [ %.027, %17 ], [ %.02737, %.preheader ]
  %.02340 = phi ptr [ %8, %17 ], [ null, %.preheader ]
  %.02539 = phi ptr [ %.126, %17 ], [ null, %.preheader ]
  %8 = tail call noalias ptr @H5FL_reg_calloc(ptr noundef nonnull @H5_H5O_copy_dtype_merge_list_t_reg_free_list) #8
  %9 = icmp eq ptr %8, null
  br i1 %9, label %19, label %10

10:                                               ; preds = %.lr.ph
  %11 = load ptr, ptr %.02741, align 8, !tbaa !23
  %12 = tail call noalias ptr @H5MM_strdup(ptr noundef %11) #8
  store ptr %12, ptr %8, align 8, !tbaa !23
  %13 = icmp eq ptr %12, null
  br i1 %13, label %19, label %14

14:                                               ; preds = %10
  %.not30 = icmp eq ptr %.02340, null
  br i1 %.not30, label %17, label %15

15:                                               ; preds = %14
  %16 = getelementptr inbounds nuw i8, ptr %.02340, i64 8
  store ptr %8, ptr %16, align 8, !tbaa !26
  br label %17

17:                                               ; preds = %14, %15
  %.126 = phi ptr [ %.02539, %15 ], [ %8, %14 ]
  %18 = getelementptr inbounds nuw i8, ptr %.02741, i64 8
  %.027 = load ptr, ptr %18, align 8, !tbaa !18
  %.not.not = icmp eq ptr %.027, null
  br i1 %.not.not, label %._crit_edge, label %.lr.ph, !llvm.loop !40

._crit_edge:                                      ; preds = %17, %.preheader
  %.025.lcssa = phi ptr [ null, %.preheader ], [ %.126, %17 ]
  store ptr %.025.lcssa, ptr %0, align 8, !tbaa !18
  br label %39

19:                                               ; preds = %10, %.lr.ph
  %.sink = phi i32 [ 237, %.lr.ph ], [ 239, %10 ]
  %20 = load i64, ptr @H5E_PLIST_g, align 8, !tbaa !10
  %21 = load i64, ptr @H5E_CANTALLOC_g, align 8, !tbaa !10
  %22 = tail call i32 (ptr, ptr, i32, i64, i64, ptr, ...) @H5E_printf_stack(ptr noundef nonnull @.str.2, ptr noundef nonnull @__func__.H5P__copy_merge_comm_dt_list, i32 noundef %.sink, i64 noundef %20, i64 noundef %21, ptr noundef nonnull @.str.15) #8
  %23 = load i8, ptr @H5P_init_g, align 1, !tbaa !3, !range !7, !noundef !8
  %24 = trunc nuw i8 %23 to i1
  %25 = load i8, ptr @H5_libterm_g, align 1, !range !7
  %26 = trunc nuw i8 %25 to i1
  %27 = xor i1 %26, true
  %28 = select i1 %24, i1 true, i1 %27
  %29 = icmp ne ptr %.02539, null
  %or.cond.i = and i1 %29, %28
  br i1 %or.cond.i, label %.preheader.i, label %H5P__free_merge_comm_dtype_list.exit, !prof !27

.preheader.i:                                     ; preds = %19, %.preheader.i
  %.0.i = phi ptr [ %31, %.preheader.i ], [ %.02539, %19 ]
  %30 = getelementptr inbounds nuw i8, ptr %.0.i, i64 8
  %31 = load ptr, ptr %30, align 8, !tbaa !26
  %32 = load ptr, ptr %.0.i, align 8, !tbaa !23
  %33 = tail call ptr @H5MM_xfree(ptr noundef %32) #8
  %34 = tail call ptr @H5FL_reg_free(ptr noundef nonnull @H5_H5O_copy_dtype_merge_list_t_reg_free_list, ptr noundef nonnull %.0.i) #8
  %.old1.not.i = icmp eq ptr %31, null
  br i1 %.old1.not.i, label %H5P__free_merge_comm_dtype_list.exit, label %.preheader.i

H5P__free_merge_comm_dtype_list.exit:             ; preds = %.preheader.i, %19
  %.not = icmp eq ptr %8, null
  br i1 %.not, label %39, label %35

35:                                               ; preds = %H5P__free_merge_comm_dtype_list.exit
  %36 = load ptr, ptr %8, align 8, !tbaa !23
  %37 = tail call ptr @H5MM_xfree(ptr noundef %36) #8
  store ptr %37, ptr %8, align 8, !tbaa !23
  %38 = tail call ptr @H5FL_reg_free(ptr noundef nonnull @H5_H5O_copy_dtype_merge_list_t_reg_free_list, ptr noundef nonnull %8) #8
  br label %39

39:                                               ; preds = %._crit_edge, %35, %H5P__free_merge_comm_dtype_list.exit, %1
  %.0 = phi i32 [ -1, %35 ], [ -1, %H5P__free_merge_comm_dtype_list.exit ], [ 0, %._crit_edge ], [ 0, %1 ]
  ret i32 %.0
}